; Function Attrs: mustprogress nofree norecurse nosync nounwind willreturn memory(read, inaccessiblemem: none) uwtable
define dso_local zeroext i1 @Curl_conn_is_connected(ptr noundef readonly captures(none) %0, i32 noundef %1) local_unnamed_addr #6 {
  %3 = getelementptr inbounds nuw i8, ptr %0, i64 608
  %4 = sext i32 %1 to i64
  %5 = getelementptr inbounds [2 x ptr], ptr %3, i64 0, i64 %4
  %6 = load ptr, ptr %5, align 8, !tbaa !51
  %.not = icmp eq ptr %6, null
  br i1 %.not, label %12, label %7

7:                                                ; preds = %2
  %8 = getelementptr inbounds nuw i8, ptr %6, i64 36
  %9 = load i8, ptr %8, align 4
  %10 = and i8 %9, 1
  %11 = icmp ne i8 %10, 0
  br label %12

12:                                               ; preds = %7, %2
  %13 = phi i1 [ false, %2 ], [ %11, %7 ]
  ret i1 %13
}